	.file	"bonsai_tq2_gemv_orig.hip"
	.text
	.globl	_Z37__device_stub__bonsai_tq2_gemv_kernelPKhPK6__halfPS1_ii # -- Begin function _Z37__device_stub__bonsai_tq2_gemv_kernelPKhPK6__halfPS1_ii
	.p2align	4
	.type	_Z37__device_stub__bonsai_tq2_gemv_kernelPKhPK6__halfPS1_ii,@function
_Z37__device_stub__bonsai_tq2_gemv_kernelPKhPK6__halfPS1_ii: # @_Z37__device_stub__bonsai_tq2_gemv_kernelPKhPK6__halfPS1_ii
	.cfi_startproc
# %bb.0:
	subq	$120, %rsp
	.cfi_def_cfa_offset 128
	movq	%rdi, 72(%rsp)
	movq	%rsi, 64(%rsp)
	movq	%rdx, 56(%rsp)
	movl	%ecx, 4(%rsp)
	movl	%r8d, (%rsp)
	leaq	72(%rsp), %rax
	movq	%rax, 80(%rsp)
	leaq	64(%rsp), %rax
	movq	%rax, 88(%rsp)
	leaq	56(%rsp), %rax
	movq	%rax, 96(%rsp)
	leaq	4(%rsp), %rax
	movq	%rax, 104(%rsp)
	movq	%rsp, %rax
	movq	%rax, 112(%rsp)
	leaq	40(%rsp), %rdi
	leaq	24(%rsp), %rsi
	leaq	16(%rsp), %rdx
	leaq	8(%rsp), %rcx
	callq	__hipPopCallConfiguration@PLT
	movq	40(%rsp), %rsi
	movl	48(%rsp), %edx
	movq	24(%rsp), %rcx
	movl	32(%rsp), %r8d
	movq	_Z22bonsai_tq2_gemv_kernelPKhPK6__halfPS1_ii@GOTPCREL(%rip), %rdi
	leaq	80(%rsp), %r9
	pushq	8(%rsp)
	.cfi_adjust_cfa_offset 8
	pushq	24(%rsp)
	.cfi_adjust_cfa_offset 8
	callq	hipLaunchKernel@PLT
	addq	$136, %rsp
	.cfi_adjust_cfa_offset -136
	retq
.Lfunc_end0:
	.size	_Z37__device_stub__bonsai_tq2_gemv_kernelPKhPK6__halfPS1_ii, .Lfunc_end0-_Z37__device_stub__bonsai_tq2_gemv_kernelPKhPK6__halfPS1_ii
	.cfi_endproc
                                        # -- End function
	.globl	bonsai_tq2_gemv_launch          # -- Begin function bonsai_tq2_gemv_launch
	.p2align	4
	.type	bonsai_tq2_gemv_launch,@function
bonsai_tq2_gemv_launch:                 # @bonsai_tq2_gemv_launch
	.cfi_startproc
# %bb.0:
	pushq	%r15
	.cfi_def_cfa_offset 16
	pushq	%r14
	.cfi_def_cfa_offset 24
	pushq	%r13
	.cfi_def_cfa_offset 32
	pushq	%r12
	.cfi_def_cfa_offset 40
	pushq	%rbx
	.cfi_def_cfa_offset 48
	subq	$128, %rsp
	.cfi_def_cfa_offset 176
	.cfi_offset %rbx, -48
	.cfi_offset %r12, -40
	.cfi_offset %r13, -32
	.cfi_offset %r14, -24
	.cfi_offset %r15, -16
	movl	%r8d, %ebx
	movl	%ecx, %r14d
	testl	%ecx, %ecx
	setle	%al
	testl	%r8d, %r8d
	setle	%cl
	orb	%al, %cl
	testb	$127, %bl
	setne	%al
	orb	%cl, %al
	jne	.LBB1_3
# %bb.1:
	movq	%rdx, %r15
	movq	%rsi, %r12
	movq	%rdi, %r13
	leal	7(%r14), %edi
	shrl	$3, %edi
	movabsq	$4294967296, %rdx               # imm = 0x100000000
	orq	%rdx, %rdi
	orq	$128, %rdx
	movl	$1, %esi
	movl	$1, %ecx
	xorl	%r8d, %r8d
	callq	__hipPushCallConfiguration@PLT
	testl	%eax, %eax
	jne	.LBB1_3
# %bb.2:
	movq	%r13, 72(%rsp)
	movq	%r12, 64(%rsp)
	movq	%r15, 56(%rsp)
	movl	%r14d, 4(%rsp)
	movl	%ebx, (%rsp)
	leaq	72(%rsp), %rax
	movq	%rax, 80(%rsp)
	leaq	64(%rsp), %rax
	movq	%rax, 88(%rsp)
	leaq	56(%rsp), %rax
	movq	%rax, 96(%rsp)
	leaq	4(%rsp), %rax
	movq	%rax, 104(%rsp)
	movq	%rsp, %rax
	movq	%rax, 112(%rsp)
	leaq	40(%rsp), %rdi
	leaq	24(%rsp), %rsi
	leaq	16(%rsp), %rdx
	leaq	8(%rsp), %rcx
	callq	__hipPopCallConfiguration@PLT
	movq	40(%rsp), %rsi
	movl	48(%rsp), %edx
	movq	24(%rsp), %rcx
	movl	32(%rsp), %r8d
	movq	_Z22bonsai_tq2_gemv_kernelPKhPK6__halfPS1_ii@GOTPCREL(%rip), %rdi
	leaq	80(%rsp), %r9
	pushq	8(%rsp)
	.cfi_adjust_cfa_offset 8
	pushq	24(%rsp)
	.cfi_adjust_cfa_offset 8
	callq	hipLaunchKernel@PLT
	addq	$16, %rsp
	.cfi_adjust_cfa_offset -16
.LBB1_3:
	addq	$128, %rsp
	.cfi_def_cfa_offset 48
	popq	%rbx
	.cfi_def_cfa_offset 40
	popq	%r12
	.cfi_def_cfa_offset 32
	popq	%r13
	.cfi_def_cfa_offset 24
	popq	%r14
	.cfi_def_cfa_offset 16
	popq	%r15
	.cfi_def_cfa_offset 8
	retq
.Lfunc_end1:
	.size	bonsai_tq2_gemv_launch, .Lfunc_end1-bonsai_tq2_gemv_launch
	.cfi_endproc
                                        # -- End function
	.p2align	4                               # -- Begin function __hip_module_ctor
	.type	__hip_module_ctor,@function
__hip_module_ctor:                      # @__hip_module_ctor
	.cfi_startproc
# %bb.0:
	subq	$40, %rsp
	.cfi_def_cfa_offset 48
	movq	__hip_gpubin_handle_aa3faf3571d05223(%rip), %rdi
	testq	%rdi, %rdi
	jne	.LBB2_2
# %bb.1:
	leaq	__hip_fatbin_wrapper(%rip), %rdi
	callq	__hipRegisterFatBinary@PLT
	movq	%rax, %rdi
	movq	%rax, __hip_gpubin_handle_aa3faf3571d05223(%rip)
.LBB2_2:
	xorps	%xmm0, %xmm0
	movups	%xmm0, 16(%rsp)
	movups	%xmm0, (%rsp)
	movq	_Z22bonsai_tq2_gemv_kernelPKhPK6__halfPS1_ii@GOTPCREL(%rip), %rsi
	leaq	.L__unnamed_1(%rip), %rcx
	movq	%rcx, %rdx
	movl	$-1, %r8d
	xorl	%r9d, %r9d
	callq	__hipRegisterFunction@PLT
	leaq	__hip_module_dtor(%rip), %rdi
	addq	$40, %rsp
	.cfi_def_cfa_offset 8
	jmp	atexit@PLT                      # TAILCALL
.Lfunc_end2:
	.size	__hip_module_ctor, .Lfunc_end2-__hip_module_ctor
	.cfi_endproc
                                        # -- End function
	.p2align	4                               # -- Begin function __hip_module_dtor
	.type	__hip_module_dtor,@function
__hip_module_dtor:                      # @__hip_module_dtor
	.cfi_startproc
# %bb.0:
	movq	__hip_gpubin_handle_aa3faf3571d05223(%rip), %rdi
	testq	%rdi, %rdi
	je	.LBB3_2
# %bb.1:
	pushq	%rax
	.cfi_def_cfa_offset 16
	callq	__hipUnregisterFatBinary@PLT
	movq	$0, __hip_gpubin_handle_aa3faf3571d05223(%rip)
	addq	$8, %rsp
	.cfi_def_cfa_offset 8
.LBB3_2:
	retq
.Lfunc_end3:
	.size	__hip_module_dtor, .Lfunc_end3-__hip_module_dtor
	.cfi_endproc
                                        # -- End function
	.type	_Z22bonsai_tq2_gemv_kernelPKhPK6__halfPS1_ii,@object # @_Z22bonsai_tq2_gemv_kernelPKhPK6__halfPS1_ii
	.section	.data.rel.ro,"aw",@progbits
	.globl	_Z22bonsai_tq2_gemv_kernelPKhPK6__halfPS1_ii
	.p2align	3, 0x0
_Z22bonsai_tq2_gemv_kernelPKhPK6__halfPS1_ii:
	.quad	_Z37__device_stub__bonsai_tq2_gemv_kernelPKhPK6__halfPS1_ii
	.size	_Z22bonsai_tq2_gemv_kernelPKhPK6__halfPS1_ii, 8

	.type	.L__unnamed_1,@object           # @0
	.section	.rodata.str1.1,"aMS",@progbits,1
.L__unnamed_1:
	.asciz	"_Z22bonsai_tq2_gemv_kernelPKhPK6__halfPS1_ii"
	.size	.L__unnamed_1, 45

	.type	.L__unnamed_2,@object           # @1
	.section	.hip_fatbin,"a",@progbits
	.p2align	12, 0x0
.L__unnamed_2:
	.asciz	"__CLANG_OFFLOAD_BUNDLE__\002\000\000\000\000\000\000\000\000\020\000\000\000\000\000\000\000\000\000\000\000\000\000\000\036\000\000\000\000\000\000\000host-x86_64-unknown-linux-gnu-\000\020\000\000\000\000\000\000H\032\000\000\000\000\000\000 \000\000\000\000\000\000\000hipv4-amdgcn-amd-amdhsa--gfx1151\000\000\000\000\000\000\000\000\000\000\000\000\000\000\000\000\000\000\000\000\000\000\000\000\000\000\000\000\000\000\000\000\000\000\000\000\000\000\000\000\000\000\000\000\000\000\000\000\000\000\000\000\000\000\000\000\000\000\000\000\000\000\000\000\000\000\000\000\000\000\000\000\000\000\000\000\000\000\000\000\000\000\000\000\000\000\000\000\000\000\000\000\000\000\000\000\000\000\000\000\000\000\000\000\000\000\000\000\000\000\000\000\000\000\000\000\000\000\000\000\000\000\000\000\000\000\000\000\000\000\000\000\000\000\000\000\000\000\000\000\000\000\000\000\000\000\000\000\000\000\000\000\000\000\000\000\000\000\000\000\000\000\000\000\000\000\000\000\000\000\000\000\000\000\000\000\000\000\000\000\000\000\000\000\000\000\000\000\000\000\000\000\000\000\000\000\000\000\000\000\000\000\000\000\000\000\000\000\000\000\000\000\000\000\000\000\000\000\000\000\000\000\000\000\000\000\000\000\000\000\000\000\000\000\000\000\000\000\000\000\000\000\000\000\000\000\000\000\000\000\000\000\000\000\000\000\000\000\000\000\000\000\000\000\000\000\000\000\000\000\000\000\000\000\000\000\000\000\000\000\000\000\000\000\000\000\000\000\000\000\000\000\000\000\000\000\000\000\000\000\000\000\000\000\000\000\000\000\000\000\000\000\000\000\000\000\000\000\000\000\000\000\000\000\000\000\000\000\000\000\000\000\000\000\000\000\000\000\000\000\000\000\000\000\000\000\000\000\000\000\000\000\000\000\000\000\000\000\000\000\000\000\000\000\000\000\000\000\000\000\000\000\000\000\000\000\000\000\000\000\000\000\000\000\000\000\000\000\000\000\000\000\000\000\000\000\000\000\000\000\000\000\000\000\000\000\000\000\000\000\000\000\000\000\000\000\000\000\000\000\000\000\000\000\000\000\000\000\000\000\000\000\000\000\000\000\000\000\000\000\000\000\000\000\000\000\000\000\000\000\000\000\000\000\000\000\000\000\000\000\000\000\000\000\000\000\000\000\000\000\000\000\000\000\000\000\000\000\000\000\000\000\000\000\000\000\000\000\000\000\000\000\000\000\000\000\000\000\000\000\000\000\000\000\000\000\000\000\000\000\000\000\000\000\000\000\000\000\000\000\000\000\000\000\000\000\000\000\000\000\000\000\000\000\000\000\000\000\000\000\000\000\000\000\000\000\000\000\000\000\000\000\000\000\000\000\000\000\000\000\000\000\000\000\000\000\000\000\000\000\000\000\000\000\000\000\000\000\000\000\000\000\000\000\000\000\000\000\000\000\000\000\000\000\000\000\000\000\000\000\000\000\000\000\000\000\000\000\000\000\000\000\000\000\000\000\000\000\000\000\000\000\000\000\000\000\000\000\000\000\000\000\000\000\000\000\000\000\000\000\000\000\000\000\000\000\000\000\000\000\000\000\000\000\000\000\000\000\000\000\000\000\000\000\000\000\000\000\000\000\000\000\000\000\000\000\000\000\000\000\000\000\000\000\000\000\000\000\000\000\000\000\000\000\000\000\000\000\000\000\000\000\000\000\000\000\000\000\000\000\000\000\000\000\000\000\000\000\000\000\000\000\000\000\000\000\000\000\000\000\000\000\000\000\000\000\000\000\000\000\000\000\000\000\000\000\000\000\000\000\000\000\000\000\000\000\000\000\000\000\000\000\000\000\000\000\000\000\000\000\000\000\000\000\000\000\000\000\000\000\000\000\000\000\000\000\000\000\000\000\000\000\000\000\000\000\000\000\000\000\000\000\000\000\000\000\000\000\000\000\000\000\000\000\000\000\000\000\000\000\000\000\000\000\000\000\000\000\000\000\000\000\000\000\000\000\000\000\000\000\000\000\000\000\000\000\000\000\000\000\000\000\000\000\000\000\000\000\000\000\000\000\000\000\000\000\000\000\000\000\000\000\000\000\000\000\000\000\000\000\000\000\000\000\000\000\000\000\000\000\000\000\000\000\000\000\000\000\000\000\000\000\000\000\000\000\000\000\000\000\000\000\000\000\000\000\000\000\000\000\000\000\000\000\000\000\000\000\000\000\000\000\000\000\000\000\000\000\000\000\000\000\000\000\000\000\000\000\000\000\000\000\000\000\000\000\000\000\000\000\000\000\000\000\000\000\000\000\000\000\000\000\000\000\000\000\000\000\000\000\000\000\000\000\000\000\000\000\000\000\000\000\000\000\000\000\000\000\000\000\000\000\000\000\000\000\000\000\000\000\000\000\000\000\000\000\000\000\000\000\000\000\000\000\000\000\000\000\000\000\000\000\000\000\000\000\000\000\000\000\000\000\000\000\000\000\000\000\000\000\000\000\000\000\000\000\000\000\000\000\000\000\000\000\000\000\000\000\000\000\000\000\000\000\000\000\000\000\000\000\000\000\000\000\000\000\000\000\000\000\000\000\000\000\000\000\000\000\000\000\000\000\000\000\000\000\000\000\000\000\000\000\000\000\000\000\000\000\000\000\000\000\000\000\000\000\000\000\000\000\000\000\000\000\000\000\000\000\000\000\000\000\000\000\000\000\000\000\000\000\000\000\000\000\000\000\000\000\000\000\000\000\000\000\000\000\000\000\000\000\000\000\000\000\000\000\000\000\000\000\000\000\000\000\000\000\000\000\000\000\000\000\000\000\000\000\000\000\000\000\000\000\000\000\000\000\000\000\000\000\000\000\000\000\000\000\000\000\000\000\000\000\000\000\000\000\000\000\000\000\000\000\000\000\000\000\000\000\000\000\000\000\000\000\000\000\000\000\000\000\000\000\000\000\000\000\000\000\000\000\000\000\000\000\000\000\000\000\000\000\000\000\000\000\000\000\000\000\000\000\000\000\000\000\000\000\000\000\000\000\000\000\000\000\000\000\000\000\000\000\000\000\000\000\000\000\000\000\000\000\000\000\000\000\000\000\000\000\000\000\000\000\000\000\000\000\000\000\000\000\000\000\000\000\000\000\000\000\000\000\000\000\000\000\000\000\000\000\000\000\000\000\000\000\000\000\000\000\000\000\000\000\000\000\000\000\000\000\000\000\000\000\000\000\000\000\000\000\000\000\000\000\000\000\000\000\000\000\000\000\000\000\000\000\000\000\000\000\000\000\000\000\000\000\000\000\000\000\000\000\000\000\000\000\000\000\000\000\000\000\000\000\000\000\000\000\000\000\000\000\000\000\000\000\000\000\000\000\000\000\000\000\000\000\000\000\000\000\000\000\000\000\000\000\000\000\000\000\000\000\000\000\000\000\000\000\000\000\000\000\000\000\000\000\000\000\000\000\000\000\000\000\000\000\000\000\000\000\000\000\000\000\000\000\000\000\000\000\000\000\000\000\000\000\000\000\000\000\000\000\000\000\000\000\000\000\000\000\000\000\000\000\000\000\000\000\000\000\000\000\000\000\000\000\000\000\000\000\000\000\000\000\000\000\000\000\000\000\000\000\000\000\000\000\000\000\000\000\000\000\000\000\000\000\000\000\000\000\000\000\000\000\000\000\000\000\000\000\000\000\000\000\000\000\000\000\000\000\000\000\000\000\000\000\000\000\000\000\000\000\000\000\000\000\000\000\000\000\000\000\000\000\000\000\000\000\000\000\000\000\000\000\000\000\000\000\000\000\000\000\000\000\000\000\000\000\000\000\000\000\000\000\000\000\000\000\000\000\000\000\000\000\000\000\000\000\000\000\000\000\000\000\000\000\000\000\000\000\000\000\000\000\000\000\000\000\000\000\000\000\000\000\000\000\000\000\000\000\000\000\000\000\000\000\000\000\000\000\000\000\000\000\000\000\000\000\000\000\000\000\000\000\000\000\000\000\000\000\000\000\000\000\000\000\000\000\000\000\000\000\000\000\000\000\000\000\000\000\000\000\000\000\000\000\000\000\000\000\000\000\000\000\000\000\000\000\000\000\000\000\000\000\000\000\000\000\000\000\000\000\000\000\000\000\000\000\000\000\000\000\000\000\000\000\000\000\000\000\000\000\000\000\000\000\000\000\000\000\000\000\000\000\000\000\000\000\000\000\000\000\000\000\000\000\000\000\000\000\000\000\000\000\000\000\000\000\000\000\000\000\000\000\000\000\000\000\000\000\000\000\000\000\000\000\000\000\000\000\000\000\000\000\000\000\000\000\000\000\000\000\000\000\000\000\000\000\000\000\000\000\000\000\000\000\000\000\000\000\000\000\000\000\000\000\000\000\000\000\000\000\000\000\000\000\000\000\000\000\000\000\000\000\000\000\000\000\000\000\000\000\000\000\000\000\000\000\000\000\000\000\000\000\000\000\000\000\000\000\000\000\000\000\000\000\000\000\000\000\000\000\000\000\000\000\000\000\000\000\000\000\000\000\000\000\000\000\000\000\000\000\000\000\000\000\000\000\000\000\000\000\000\000\000\000\000\000\000\000\000\000\000\000\000\000\000\000\000\000\000\000\000\000\000\000\000\000\000\000\000\000\000\000\000\000\000\000\000\000\000\000\000\000\000\000\000\000\000\000\000\000\000\000\000\000\000\000\000\000\000\000\000\000\000\000\000\000\000\000\000\000\000\000\000\000\000\000\000\000\000\000\000\000\000\000\000\000\000\000\000\000\000\000\000\000\000\000\000\000\000\000\000\000\000\000\000\000\000\000\000\000\000\000\000\000\000\000\000\000\000\000\000\000\000\000\000\000\000\000\000\000\000\000\000\000\000\000\000\000\000\000\000\000\000\000\000\000\000\000\000\000\000\000\000\000\000\000\000\000\000\000\000\000\000\000\000\000\000\000\000\000\000\000\000\000\000\000\000\000\000\000\000\000\000\000\000\000\000\000\000\000\000\000\000\000\000\000\000\000\000\000\000\000\000\000\000\000\000\000\000\000\000\000\000\000\000\000\000\000\000\000\000\000\000\000\000\000\000\000\000\000\000\000\000\000\000\000\000\000\000\000\000\000\000\000\000\000\000\000\000\000\000\000\000\000\000\000\000\000\000\000\000\000\000\000\000\000\000\000\000\000\000\000\000\000\000\000\000\000\000\000\000\000\000\000\000\000\000\000\000\000\000\000\000\000\000\000\000\000\000\000\000\000\000\000\000\000\000\000\000\000\000\000\000\000\000\000\000\000\000\000\000\000\000\000\000\000\000\000\000\000\000\000\000\000\000\000\000\000\000\000\000\000\000\000\000\000\000\000\000\000\000\000\000\000\000\000\000\000\000\000\000\000\000\000\000\000\000\000\000\000\000\000\000\000\000\000\000\000\000\000\000\000\000\000\000\000\000\000\000\000\000\000\000\000\000\000\000\000\000\000\000\000\000\000\000\000\000\000\000\000\000\000\000\000\000\000\000\000\000\000\000\000\000\000\000\000\000\000\000\000\000\000\000\000\000\000\000\000\000\000\000\000\000\000\000\000\000\000\000\000\000\000\000\000\000\000\000\000\000\000\000\000\000\000\000\000\000\000\000\000\000\000\000\000\000\000\000\000\000\000\000\000\000\000\000\000\000\000\000\000\000\000\000\000\000\000\000\000\000\000\000\000\000\000\000\000\000\000\000\000\000\000\000\000\000\000\000\000\000\000\000\000\000\000\000\000\000\000\000\000\000\000\000\000\000\000\000\000\000\000\000\000\000\000\000\000\000\000\000\000\000\000\000\000\000\000\000\000\000\000\000\000\000\000\000\000\000\000\000\000\000\000\000\000\000\000\000\000\000\000\000\000\000\000\000\000\000\000\000\000\000\000\000\000\000\000\000\000\000\000\000\000\000\000\000\000\000\000\000\000\000\000\000\000\000\000\000\000\000\000\000\000\000\000\000\000\000\000\000\000\000\000\000\000\000\000\000\000\000\000\000\000\000\000\000\000\000\000\000\000\000\000\000\000\000\000\000\000\000\000\000\000\000\000\000\000\000\000\000\000\000\000\000\000\000\000\000\000\000\000\000\000\000\000\000\000\000\000\000\000\000\000\000\000\000\000\000\000\000\000\000\000\000\000\000\000\000\000\000\000\000\000\000\000\000\000\000\000\000\000\000\000\000\000\000\000\000\000\000\000\000\000\000\000\000\000\000\000\000\000\000\000\000\000\000\000\000\000\000\000\000\000\000\000\000\000\000\000\000\000\000\000\000\000\000\000\000\000\000\000\000\000\000\000\000\000\000\000\000\000\000\000\000\000\000\000\000\000\000\000\000\000\000\000\000\000\000\000\000\000\000\000\000\000\000\000\000\000\000\000\000\000\000\000\000\000\000\000\000\000\000\000\000\000\000\000\000\000\000\000\000\000\000\000\000\000\000\000\000\000\000\000\000\000\000\000\000\000\000\000\000\000\000\000\000\000\000\000\000\000\000\000\000\000\000\000\000\000\000\000\000\000\000\000\000\000\000\000\000\000\000\000\000\000\000\000\000\000\000\000\000\000\000\000\000\000\000\000\000\000\000\000\000\000\000\000\000\000\000\000\000\000\000\000\000\000\000\000\000\000\000\000\000\000\000\000\000\000\000\000\000\000\000\000\000\000\000\000\000\000\000\000\000\000\000\000\000\000\000\000\000\000\000\000\000\000\000\000\000\000\000\000\000\000\000\000\000\000\000\000\000\000\000\000\000\000\000\000\000\000\000\000\000\000\000\000\000\000\000\000\000\000\000\000\000\000\000\000\000\000\000\000\000\000\000\000\000\000\000\000\000\000\000\000\000\000\000\000\000\000\000\000\000\000\000\000\000\000\000\000\000\000\000\000\000\000\000\000\000\000\000\000\000\000\000\000\000\000\000\000\000\000\000\000\000\000\000\000\000\000\000\000\000\000\000\000\000\000\000\000\000\000\000\000\000\000\000\000\000\000\000\000\000\000\000\000\000\000\000\000\000\000\000\000\000\000\000\000\000\000\000\000\000\000\000\000\000\000\000\000\000\000\000\000\000\000\000\000\000\000\000\000\000\000\000\000\000\000\000\000\000\000\000\000\000\000\000\000\000\000\000\000\000\000\000\000\000\000\000\000\000\000\000\000\000\000\000\000\000\000\000\000\000\000\000\000\000\000\000\000\000\000\000\000\000\000\000\000\000\000\000\000\000\000\000\000\000\000\000\000\000\000\000\000\000\000\000\000\000\000\000\000\000\000\000\000\000\000\000\000\000\000\000\000\000\000\000\000\000\000\000\000\000\000\000\000\000\000\000\000\000\000\000\000\000\000\000\000\000\000\000\000\000\000\000\000\000\000\000\000\000\000\000\000\000\000\000\000\000\000\000\000\000\000\000\000\000\000\000\000\000\000\000\000\000\000\000\000\000\000\000\000\000\000\000\000\000\000\000\000\000\000\000\000\000\000\000\000\000\000\000\000\000\000\000\000\000\000\000\000\000\000\000\000\000\000\000\000\000\000\000\000\000\000\000\000\000\000\000\000\000\000\000\000\000\000\000\000\000\000\000\000\000\000\000\000\000\000\000\000\000\000\000\000\000\000\000\000\000\000\000\000\000\000\000\000\000\000\000\000\000\000\000\000\000\000\000\000\000\000\000\000\000\000\000\000\000\000\000\000\000\000\000\000\000\000\000\000\000\000\000\000\000\000\000\000\000\000\000\000\000\000\000\000\000\000\000\000\000\000\000\000\000\000\000\000\000\000\000\000\000\000\000\000\000\000\000\000\000\000\000\000\000\000\000\000\000\000\000\000\000\000\000\000\000\000\000\000\000\000\000\000\000\000\000\000\000\000\000\000\000\000\000\000\000\000\000\000\000\000\000\000\000\000\000\000\000\000\000\000\000\000\000\000\000\000\000\000\000\000\000\000\000\000\000\000\000\000\000\000\000\000\000\000\000\000\000\000\000\000\000\000\000\000\000\000\000\000\000\000\000\000\000\000\000\000\000\000\000\000\000\000\000\000\000\000\000\000\000\000\000\000\000\000\000\000\000\000\000\000\000\000\000\000\000\000\000\000\000\000\000\000\000\000\000\000\000\000\000\000\000\000\000\000\000\000\000\000\000\000\000\000\000\000\000\000\000\000\000\000\000\000\000\000\000\000\000\000\000\000\000\000\000\000\000\000\000\000\000\000\000\000\000\000\000\000\000\000\000\000\000\000\000\000\000\000\000\000\000\000\000\000\000\000\000\000\000\000\000\000\000\000\000\000\000\000\000\000\000\000\000\000\000\000\000\000\000\000\000\000\000\000\000\000\000\000\000\000\000\000\000\000\000\000\000\000\000\000\000\000\000\000\000\000\000\000\000\000\000\000\000\000\000\000\000\000\000\000\000\000\000\000\000\000\000\000\000\000\000\000\000\000\000\000\000\000\000\000\000\000\000\000\000\000\000\000\000\000\000\000\000\000\000\000\000\000\000\000\000\000\000\000\000\000\000\000\000\000\000\000\000\000\000\000\000\000\000\000\000\000\000\000\000\000\000\000\000\000\000\000\000\000\000\000\000\000\000\000\000\000\000\000\000\000\000\000\000\000\000\000\000\000\000\000\000\000\000\000\000\000\000\000\000\000\000\000\000\000\000\000\000\000\000\000\000\000\000\000\000\000\000\000\000\000\000\000\000\000\000\000\000\000\000\000\000\000\000\000\000\000\000\000\000\000\000\000\000\000\000\000\000\000\000\000\000\000\000\000\000\000\000\000\000\000\000\000\000\000\000\000\000\000\000\000\000\000\000\000\000\000\000\000\000\000\000\000\000\000\000\000\000\000\000\000\000\000\000\000\000\000\000\000\000\000\000\000\000\000\000\000\000\000\000\000\000\000\000\000\000\000\000\000\000\000\000\000\000\000\000\000\000\000\000\000\000\000\000\000\000\000\000\000\000\000\000\000\000\000\000\000\000\000\000\000\000\000\000\000\000\000\000\000\000\000\000\000\000\000\000\000\000\000\000\000\177ELF\002\001\001@\004\000\000\000\000\000\000\000\003\000\340\000\001\000\000\000\000\000\000\000\000\000\000\000@\000\000\000\000\000\000\000\b\026\000\000\000\000\000\000J\000\000\000@\0008\000\t\000@\000\021\000\017\000\006\000\000\000\004\000\000\000@\000\000\000\000\000\000\000@\000\000\000\000\000\000\000@\000\000\000\000\000\000\000\370\001\000\000\000\000\000\000\370\001\000\000\000\000\000\000\b\000\000\000\000\000\000\000\001\000\000\000\004\000\000\000\000\000\000\000\000\000\000\000\000\000\000\000\000\000\000\000\000\000\000\000\000\000\000\000@\007\000\000\000\000\000\000@\007\000\000\000\000\000\000\000\020\000\000\000\000\000\000\001\000\000\000\005\000\000\000\000\b\000\000\000\000\000\000\000\030\000\000\000\000\000\000\000\030\000\000\000\000\000\000\200\007\000\000\000\000\000\000\200\007\000\000\000\000\000\000\000\020\000\000\000\000\000\000\001\000\000\000\006\000\000\000\200\017\000\000\000\000\000\000\200/\000\000\000\000\000\000\200/\000\000\000\000\000\000p\000\000\000\000\000\000\000\200\000\000\000\000\000\000\000\000\020\000\000\000\000\000\000\001\000\000\000\006\000\000\000\360\017\000\000\000\000\000\000\360?\000\000\000\000\000\000\360?\000\000\000\000\000\000\000\000\000\000\000\000\000\000\001\000\000\000\000\000\000\000\000\020\000\000\000\000\000\000\002\000\000\000\006\000\000\000\200\017\000\000\000\000\000\000\200/\000\000\000\000\000\000\200/\000\000\000\000\000\000p\000\000\000\000\000\000\000p\000\000\000\000\000\000\000\b\000\000\000\000\000\000\000R\345td\004\000\000\000\200\017\000\000\000\000\000\000\200/\000\000\000\000\000\000\200/\000\000\000\000\000\000p\000\000\000\000\000\000\000\200\000\000\000\000\000\000\000\001\000\000\000\000\000\000\000Q\345td\006\000\000\000\000\000\000\000\000\000\000\000\000\000\000\000\000\000\000\000\000\000\000\000\000\000\000\000\000\000\000\000\000\000\000\000\000\000\000\000\000\000\000\000\000\000\000\000\000\000\000\000\004\000\000\000\004\000\000\0008\002\000\000\000\000\000\0008\002\000\000\000\000\000\0008\002\000\000\000\000\000\000|\003\000\000\000\000\000\000|\003\000\000\000\000\000\000\004\000\000\000\000\000\000\000\007\000\000\000e\003\000\000 \000\000\000AMDGPU\000\000\203\256amdhsa.kernels\221\336\000\022\245.args\225\205\256.actual_access\251read_only\256.address_space\246global\247.offset\000\245.size\b\253.value_kind\255global_buffer\205\256.actual_access\251read_only\256.address_space\246global\247.offset\b\245.size\b\253.value_kind\255global_buffer\205\256.actual_access\252write_only\256.address_space\246global\247.offset\020\245.size\b\253.value_kind\255global_buffer\203\247.offset\030\245.size\004\253.value_kind\250by_value\203\247.offset\034\245.size\004\253.value_kind\250by_value\271.group_segment_fixed_size\315\001\000\266.kernarg_segment_align\b\265.kernarg_segment_size \251.language\250OpenCL C\261.language_version\222\002\000\270.max_flat_workgroup_size\314\200\245.name\331,_Z22bonsai_tq2_gemv_kernelPKhPK6__halfPS1_ii\273.private_segment_fixed_size\000\253.sgpr_count\016\261.sgpr_spill_count\000\247.symbol\331/_Z22bonsai_tq2_gemv_kernelPKhPK6__halfPS1_ii.kd\270.uniform_work_group_size\001\263.uses_dynamic_stack\302\253.vgpr_count#\261.vgpr_spill_count\000\257.wavefront_size \271.workgroup_processor_mode\001\255amdhsa.target\272amdgcn-amd-amdhsa--gfx1151\256amdhsa.version\222\001\002\000\000\000\000\000\000\000\000\000\000\000\000\000\000\000\000\000\000\000\000\000\000\000\000\000\000\000\000\000\000\000\001\000\000\000\022\003\007\000\000\030\000\000\000\000\000\000\304\005\000\000\000\000\000\000.\000\000\000\021\003\006\000\000\007\000\000\000\000\000\000@\000\000\000\000\000\000\000^\000\000\000\021\000\n\000\360?\000\000\000\000\000\000\001\000\000\000\000\000\000\000\001\000\000\000\001\000\000\000\001\000\000\000\032\000\000\000\000\000\003\002\204\000\020\000\001\000\000\000t`\215B\320\315Q\210Y\300\213\236\004\000\000\000\004\000\000\000\002\000\000\000\001\000\000\000\000\000\000\000\003\000\000\000\000\000\000\000\000\000\000\000\000\000\000\000\000\000\000\000\000_Z22bonsai_tq2_gemv_kernelPKhPK6__halfPS1_ii\000_Z22bonsai_tq2_gemv_kernelPKhPK6__halfPS1_ii.kd\000__hip_cuid_aa3faf3571d05223\000\000\000\000\000\000\000\000\000\000\000\000\000\000\000\000\000\000\000\000\000\000\000\000\000\000\000\000\000\000\000\000\001\000\000\000\000\000\000 \000\000\000\000\000\000\000\000\021\000\000\000\000\000\000\000\000\000\000\000\000\000\000\000\000\000\000\000\000\000\000\000\000\000\000\300\000\000\000\004\000\257\340\204\000\000\000\b\004\000\000\000\000\000\000\000\000\000\000\000\000\000\000\000\000\000\000\000\000\000\000\000\000\000\000\000\000\000\000\000\000\000\000\000\000\000\000\000\000\000\000\000\000\000\000\000\000\000\000\000\000\000\000\000\000\000\000\000\000\000\000\000\000\000\000\000\000\000\000\000\000\000\000\000\000\000\000\000\000\000\000\000\000\000\000\000\000\000\000\000\000\000\000\000\000\000\000\000\000\000\000\000\000\000\000\000\000\000\000\000\000\000\000\000\000\000\000\000\000\000\000\000\000\000\000\000\000\000\000\000\000\000\000\000\000\000\000\000\000\000\000\000\000\000\000\000\000\000\000\000\000\000\000\000\000\000\000\000\000\000\000\000\000\000\000\000\000\000\000\000\000\000\000\000\000\000\000\000\000\000\000\000\000\000\000\000\000\000\000\000\000\000\000\000\000\000\000\000\001\004\364\030\000\000\370\205\000\0022\002\203\002\204\200\000\206\276\261\004\207\277\b\000F\326\001\003\t\000\007\374\211\277\005\207\005\206\005\200\002\277\003\000\242\277\001\000F\326\001\003\t\000\001\000\240\277\301\000\206\276\200\000\004\364\020\000\000\370\200\000$\312\237\000\006\n\200\002\022~~\006j\221\332\000\244\277\000\002\b\364\000\000\000\370\201\020\0028\000\000D\324\004\020\002\000\005\242\001\226\200\000\"\312\203\016\n\n\004\002\210|\006\000\001\325\200\020\002\000\200\000\"\312\201\000\000\t\200\002\n\002\007\374\211\277A\001\207\277\001|\376\326\005\003 \000\003|\376\326\006\003 \000\237\n\n4\237\f\f4\016|\376\326\005\003\b\004\242\000\207\277\004|\376\326\006\003\020\004\f\001\000\327\007\005\001\000\r| \325\200\000\005\000\005\001\000\327\n\000\002\000\001\000\207\277\006| \325\013\000\005\000\016\003\004~\000\000\275\277\000\000\254\340\000\000\000\000\000\000\202\334\005\000|\016\017\001\000\327\003\031\002\000\241\000\207\277\020| \325\004\033\006\000\021\001\000\327\001\031\002\000\022| \325\002\033\006\000\005\001\000\327\377\n\002\000\000\001\000\000\241\004\207\277\006| \325\200\f\006\000\005\301\005\201\005\200\006\277\367\003\211\277\000\000|\330\000\016\000\000\007\374\211\277\000\000\275\277\000\000\254\340\000\000\000\000\000\000B\334\017\000|\020\000\000B\334\021\000|\021\000\000\202\334\003\000|\022\000\000\202\334\001\000|\023\000\000\330\331\013\000\000\016\007\374\211\277\016\027(~\367\017\211\277\001\000L\324\300 \002\000\203 *6\026\000\020\326\020\005\t\002\027\000\020\326\020\t\t\002\377 06\300\000\000\000\020\000\001\325\200\344\005\000\367\013\211\277\001\000L\324\300\"\002\000\203\"26\032\000\020\326\021\005\t\002\033\000\020\326\021\t\t\002\377\"86\300\000\000\000\021\000\001\325\200\344\005\000\001\000J\324\202*\002\000\241\000\207\277\035\000\001\325\200\344\005\000\001\000J\324\200*\002\000\025\000\001\325\200\344\005\000\001\000J\324\202,\002\000\022\001\207\277\035+*\b\036\000\001\325\200\344\005\000\001\000J\324\200,\002\000\023\001\207\277\025)*\020\026\000\001\325\200\344\005\000\001\000J\324\202.\002\000\022\001\207\277\036-,\b\037\000\001\325\200\344\005\000\001\000J\324\200.\002\000\023\001\207\277\025\020 \314\026\035V\024\027\000\001\325\200\344\005\000\001\000J\324\3770\002\000\200\000\000\000\022\001\207\277\037/.\b\030\000\001\325\200\344\005\000\001\000J\324\2022\002\000\022\001\207\277\030! \b \000\001\325\200\344\005\000\001\000J\324\2002\002\000!\001\207\277\031\000\001\325\200\344\005\000\001\000J\324\2024\002\000 32\b\242\001\207\277!\000\001\325\200\344\005\000\001\000J\324\2004\002\000\031)(\020\"\001\207\277\032\000\001\325\200\344\005\000\001\000J\324\2026\002\000!54\b\242\001\207\277\"\000\001\325\200\344\005\000\001\000J\324\2006\002\000\016\020 \314\032\035R\024\024\000 \314\027\037V\024\243\001\207\277\033\000\001\325\200\344\005\000\001\000J\324\3778\002\000\200\000\000\000\020\020 \314\020\037R\024\223\001\207\277\"72\b\034\000\001\325\200\344\005\000\001\001\000\327\001E\001\000\221\001\207\277\002| \325\200\004\006\000\034#\"\b\016\000 \314\031\037:\024\003\001\000\327\003E\001\000\221\001\207\277\004| \325\200\b\006\000\016\020 \314\021\037:\024\367\007\211\277\017\000 \314\022!*\f\367\003\211\277\022\001\207\277\016\000 \314\023\035&\f\n\000\001\325\n\037\002\000\002\000\207\277\t\035\022\002L\377\241\277\b\003\002~\002\000\037\327\301\000\001\000\022\001\207\277\000\000D\324\004\002\002\000\220\004\000:\210\004\006:\242\001\207\277\240\000\210|\002\001\000\002\240\006\210|\002\007\006\002\021\002\207\277\202\006\0060\202\000\0000\000\000\314\332\000\n\000\004\007\374\211\277\n\t\n\006\204\004\b:\201\004\024:\000\000\314\332\003\005\000\006\240\b\210|\002\t\b\002\007\374\211\277\005\r\f\006\202\004\n:1\001\207\277\240\n\210|\002\013\n\002\240\024\210|\202\n\n0\202\b\b0\002\025\024\002\200\016\224|\000\000\314\332\004\006\000\bj\000\000\213\007\374\211\277\006\021\f\006\000\000\314\332\005\006\000\b\007\374\211\277\006\021\004\006\202\024\f0\000\000\314\332\006\002\000\b\000 \201\276\034\000\245\277\007\374\211\277\002\021\004\006\221\000\207\277\000\000\036\324\377\004\002\000\000\340\177G\007\000\001\325\377\004\002\000\000\340\177G\237\002\0044\222\000\207\277\000\000\033\324\377\016\002\000\000\340\177\307\n\000\001\325\377\016\002\000\000\340\177\307\023\001\207\277\007\000<\327\201\002\002\000\n\025\004~\222\000\207\277\007\000\000\327\002\016\002\000\b| \325\003\020\002\000\000\000f\334\007\002|\000~\001~\214\000\000\314\332\000\t\000\000\007\374\211\277\t\001\000\006\000\000\314\332\003\000\000\002\007\374\211\277\000\005\000\006\000\000\314\332\004\000\000\002\007\374\211\277\000\005\000\006\000\000\314\332\005\000\000\002\007\374\211\277\000\005\000\006\000\000\314\332\006\000\000\002j \200\276\034\000\245\277\201\002\006J\001\000\207\277\004\006\210|~j~\213\027\000\245\277\007\374\211\277\000\005\000\006\237\002\0044\022\001\207\277\377\000<|\000\340\177G\001\000<\327\201\002\002\000\377\000\000\002\000\340\177G!\002\207\277\377\0006|\000\340\177\307\377\000\000\002\000\340\177\307\001j\000\327\002\002\002\000\221\001\207\277\002| \325\003\004\252\001\000\025\000~\002\000f\334\001\000|\000\000\000\260\277\000\000\237\277\000\000\237\277\000\000\237\277\000\000\237\277\000\000\237\277\000\000\237\277\000\000\237\277\000\000\237\277\000\000\237\277\000\000\237\277\000\000\237\277\000\000\237\277\000\000\237\277\000\000\237\277\000\000\237\277\000\000\237\277\000\000\237\277\000\000\237\277\000\000\237\277\000\000\237\277\000\000\237\277\000\000\237\277\000\000\237\277\000\000\237\277\000\000\237\277\000\000\237\277\000\000\237\277\000\000\237\277\000\000\237\277\000\000\237\277\000\000\237\277\000\000\237\277\000\000\237\277\000\000\237\277\000\000\237\277\000\000\237\277\000\000\237\277\000\000\237\277\000\000\237\277\000\000\237\277\000\000\237\277\000\000\237\277\000\000\237\277\000\000\237\277\000\000\237\277\000\000\237\277\000\000\237\277\000\000\237\277\000\000\237\277\000\000\237\277\000\000\237\277\000\000\237\277\000\000\237\277\000\000\237\277\000\000\237\277\000\000\237\277\000\000\237\277\000\000\237\277\000\000\237\277\000\000\237\277\000\000\237\277\000\000\237\277\000\000\237\277\000\000\237\277\000\000\237\277\000\000\237\277\000\000\237\277\000\000\237\277\000\000\237\277\000\000\237\277\000\000\237\277\000\000\237\277\000\000\237\277\000\000\237\277\000\000\237\277\000\000\237\277\000\000\237\277\000\000\237\277\000\000\237\277\000\000\237\277\000\000\237\277\000\000\237\277\000\000\237\277\000\000\237\277\000\000\237\277\000\000\237\277\000\000\237\277\000\000\237\277\000\000\237\277\000\000\237\277\000\000\237\277\000\000\237\277\000\000\237\277\000\000\237\277\000\000\237\277\000\000\237\277\000\000\237\277\000\000\237\277\000\000\237\277\000\000\237\277\000\000\237\277\000\000\237\277\000\000\237\277\000\000\237\277\000\000\237\277\000\000\237\277\000\000\237\277\000\000\237\277\000\000\237\277\000\000\237\277\000\000\237\277\006\000\000\000\000\000\000\000\270\005\000\000\000\000\000\000\013\000\000\000\000\000\000\000\030\000\000\000\000\000\000\000\005\000\000\000\000\000\000\000h\006\000\000\000\000\000\000\n\000\000\000\000\000\000\000z\000\000\000\000\000\000\000\365\376\377o\000\000\000\000\030\006\000\000\000\000\000\000\004\000\000\000\000\000\000\000@\006\000\000\000\000\000\000\000\000\000\000\000\000\000\000\000\000\000\000\000\000\000\000Linker: AMD LLD 22.0.0 (/startdir/rocm-llvm f58b06dce1f9c15707c5f808fd002e18c2accf7e)\000\000AMD clang version 22.0.0git (/startdir/rocm-llvm f58b06dce1f9c15707c5f808fd002e18c2accf7e)\000\000\000\000\000\000\000\000\000\000\000\000\000\000\000\000\000\000\000\000\000\000\000\000\000\000\000\000\000\000\000\001\000\000\000\000\000\361\377#\000\000\000\000\000\000\000\000\000\000\000\000\000\000\0007\000\000\000\000\000\361\377\000\000\000\000\000\000\000\000\000\000\000\000\000\000\000\000m\000\000\000\000\000\361\377\f\000\000\000\000\000\000\000\000\000\000\000\000\000\000\000\250\000\000\000\000\000\361\377\000\000\000\000\000\000\000\000\000\000\000\000\000\000\000\000\347\000\000\000\000\000\361\377\000\000\000\000\000\000\000\000\000\000\000\000\000\000\000\000%\001\000\000\000\000\361\377\001\000\000\000\000\000\000\000\000\000\000\000\000\000\000\000[\001\000\000\000\000\361\377\000\000\000\000\000\000\000\000\000\000\000\000\000\000\000\000\232\001\000\000\000\000\361\377\000\000\000\000\000\000\000\000\000\000\000\000\000\000\000\000\333\001\000\000\000\000\361\377\000\000\000\000\000\000\000\000\000\000\000\000\000\000\000\000\026\002\000\000\000\000\361\377\000\000\000\000\000\000\000\000\000\000\000\000\000\000\000\000U\002\000\000\000\000\361\377\000\000\000\000\000\000\000\000\000\000\000\000\000\000\000\000i\002\000\000\000\000\361\377\000\000\000\000\000\000\000\000\000\000\000\000\000\000\000\000}\002\000\000\000\000\361\377\000\000\000\000\000\000\000\000\000\000\000\000\000\000\000\000\n\003\000\000\000\002\b\000\200/\000\000\000\000\000\000\000\000\000\000\000\000\000\000\221\002\000\000\022\003\007\000\000\030\000\000\000\000\000\000\304\005\000\000\000\000\000\000\276\002\000\000\021\003\006\000\000\007\000\000\000\000\000\000@\000\000\000\000\000\000\000\356\002\000\000\021\000\n\000\360?\000\000\000\000\000\000\001\000\000\000\000\000\000\000\000.note\000.dynsym\000.gnu.hash\000.hash\000.dynstr\000.rodata\000.text\000.dynamic\000.relro_padding\000.bss\000.AMDGPU.csdata\000.AMDGPU.gpr_maximums\000.comment\000.symtab\000.shstrtab\000.strtab\000\000_Z22bonsai_tq2_gemv_kernelPKhPK6__halfPS1_ii.num_vgpr\000_Z22bonsai_tq2_gemv_kernelPKhPK6__halfPS1_ii.num_agpr\000_Z22bonsai_tq2_gemv_kernelPKhPK6__halfPS1_ii.numbered_sgpr\000_Z22bonsai_tq2_gemv_kernelPKhPK6__halfPS1_ii.num_named_barrier\000_Z22bonsai_tq2_gemv_kernelPKhPK6__halfPS1_ii.private_seg_size\000_Z22bonsai_tq2_gemv_kernelPKhPK6__halfPS1_ii.uses_vcc\000_Z22bonsai_tq2_gemv_kernelPKhPK6__halfPS1_ii.uses_flat_scratch\000_Z22bonsai_tq2_gemv_kernelPKhPK6__halfPS1_ii.has_dyn_sized_stack\000_Z22bonsai_tq2_gemv_kernelPKhPK6__halfPS1_ii.has_recursion\000_Z22bonsai_tq2_gemv_kernelPKhPK6__halfPS1_ii.has_indirect_call\000amdgpu.max_num_vgpr\000amdgpu.max_num_agpr\000amdgpu.max_num_sgpr\000_Z22bonsai_tq2_gemv_kernelPKhPK6__halfPS1_ii\000_Z22bonsai_tq2_gemv_kernelPKhPK6__halfPS1_ii.kd\000__hip_cuid_aa3faf3571d05223\000_DYNAMIC\000\000\000\000\000\000\000\000\000\000\000\000\000\000\000\000\000\000\000\000\000\000\000\000\000\000\000\000\000\000\000\000\000\000\000\000\000\000\000\000\000\000\000\000\000\000\000\000\000\000\000\000\000\000\000\000\000\000\000\000\000\000\000\000\000\000\000\000\000\001\000\000\000\007\000\000\000\002\000\000\000\000\000\000\0008\002\000\000\000\000\000\0008\002\000\000\000\000\000\000|\003\000\000\000\000\000\000\000\000\000\000\000\000\000\000\004\000\000\000\000\000\000\000\000\000\000\000\000\000\000\000\007\000\000\000\013\000\000\000\002\000\000\000\000\000\000\000\270\005\000\000\000\000\000\000\270\005\000\000\000\000\000\000`\000\000\000\000\000\000\000\005\000\000\000\001\000\000\000\b\000\000\000\000\000\000\000\030\000\000\000\000\000\000\000\017\000\000\000\366\377\377o\002\000\000\000\000\000\000\000\030\006\000\000\000\000\000\000\030\006\000\000\000\000\000\000(\000\000\000\000\000\000\000\002\000\000\000\000\000\000\000\b\000\000\000\000\000\000\000\000\000\000\000\000\000\000\000\031\000\000\000\005\000\000\000\002\000\000\000\000\000\000\000@\006\000\000\000\000\000\000@\006\000\000\000\000\000\000(\000\000\000\000\000\000\000\002\000\000\000\000\000\000\000\004\000\000\000\000\000\000\000\004\000\000\000\000\000\000\000\037\000\000\000\003\000\000\000\002\000\000\000\000\000\000\000h\006\000\000\000\000\000\000h\006\000\000\000\000\000\000z\000\000\000\000\000\000\000\000\000\000\000\000\000\000\000\001\000\000\000\000\000\000\000\000\000\000\000\000\000\000\000'\000\000\000\001\000\000\000\002\000\000\000\000\000\000\000\000\007\000\000\000\000\000\000\000\007\000\000\000\000\000\000@\000\000\000\000\000\000\000\000\000\000\000\000\000\000\000@\000\000\000\000\000\000\000\000\000\000\000\000\000\000\000/\000\000\000\001\000\000\000\006\000\000\000\000\000\000\000\000\030\000\000\000\000\000\000\000\b\000\000\000\000\000\000\200\007\000\000\000\000\000\000\000\000\000\000\000\000\000\000\000\001\000\000\000\000\000\000\000\000\000\000\000\000\000\0005\000\000\000\006\000\000\000\003\000\000\000\000\000\000\000\200/\000\000\000\000\000\000\200\017\000\000\000\000\000\000p\000\000\000\000\000\000\000\005\000\000\000\000\000\000\000\b\000\000\000\000\000\000\000\020\000\000\000\000\000\000\000>\000\000\000\b\000\000\000\003\000\000\000\000\000\000\000\360/\000\000\000\000\000\000\360\017\000\000\000\000\000\000\020\000\000\000\000\000\000\000\000\000\000\000\000\000\000\000\001\000\000\000\000\000\000\000\000\000\000\000\000\000\000\000M\000\000\000\b\000\000\000\003\000\000\000\000\000\000\000\360?\000\000\000\000\000\000\360\017\000\000\000\000\000\000\001\000\000\000\000\000\000\000\000\000\000\000\000\000\000\000\001\000\000\000\000\000\000\000\000\000\000\000\000\000\000\000R\000\000\000\001\000\000\000\000\000\000\000\000\000\000\000\000\000\000\000\000\000\000\000\360\017\000\000\000\000\000\000\000\000\000\000\000\000\000\000\000\000\000\000\000\000\000\000\001\000\000\000\000\000\000\000\000\000\000\000\000\000\000\000a\000\000\000\001\000\000\000\000\000\000\000\000\000\000\000\000\000\000\000\000\000\000\000\360\017\000\000\000\000\000\000\000\000\000\000\000\000\000\000\000\000\000\000\000\000\000\000\001\000\000\000\000\000\000\000\000\000\000\000\000\000\000\000v\000\000\000\001\000\000\0000\000\000\000\000\000\000\000\000\000\000\000\000\000\000\000\360\017\000\000\000\000\000\000\262\000\000\000\000\000\000\000\000\000\000\000\000\000\000\000\001\000\000\000\000\000\000\000\001\000\000\000\000\000\000\000\177\000\000\000\002\000\000\000\000\000\000\000\000\000\000\000\000\000\000\000\000\000\000\000\250\020\000\000\000\000\000\000\260\001\000\000\000\000\000\000\020\000\000\000\017\000\000\000\b\000\000\000\000\000\000\000\030\000\000\000\000\000\000\000\207\000\000\000\003\000\000\000\000\000\000\000\000\000\000\000\000\000\000\000\000\000\000\000X\022\000\000\000\000\000\000\231\000\000\000\000\000\000\000\000\000\000\000\000\000\000\000\001\000\000\000\000\000\000\000\000\000\000\000\000\000\000\000\221\000\000\000\003\000\000\000\000\000\000\000\000\000\000\000\000\000\000\000\000\000\000\000\361\022\000\000\000\000\000\000\023\003\000\000\000\000\000\000\000\000\000\000\000\000\000\000\001\000\000\000\000\000\000\000\000\000\000\000\000\000\000"
	.size	.L__unnamed_2, 10824

	.type	__hip_fatbin_wrapper,@object    # @__hip_fatbin_wrapper
	.section	.hipFatBinSegment,"aw",@progbits
	.p2align	3, 0x0
__hip_fatbin_wrapper:
	.long	1212764230                      # 0x48495046
	.long	1                               # 0x1
	.quad	.L__unnamed_2
	.quad	0
	.size	__hip_fatbin_wrapper, 24

	.type	__hip_gpubin_handle_aa3faf3571d05223,@object # @__hip_gpubin_handle_aa3faf3571d05223
	.local	__hip_gpubin_handle_aa3faf3571d05223
	.comm	__hip_gpubin_handle_aa3faf3571d05223,8,8
	.section	.init_array,"aw",@init_array
	.p2align	3, 0x0
	.quad	__hip_module_ctor
	.type	__hip_cuid_aa3faf3571d05223,@object # @__hip_cuid_aa3faf3571d05223
	.bss
	.globl	__hip_cuid_aa3faf3571d05223
__hip_cuid_aa3faf3571d05223:
	.byte	0                               # 0x0
	.size	__hip_cuid_aa3faf3571d05223, 1

	.ident	"AMD clang version 22.0.0git (/startdir/rocm-llvm f58b06dce1f9c15707c5f808fd002e18c2accf7e)"
	.section	".note.GNU-stack","",@progbits
	.addrsig
	.addrsig_sym _Z37__device_stub__bonsai_tq2_gemv_kernelPKhPK6__halfPS1_ii
	.addrsig_sym __hip_module_ctor
	.addrsig_sym __hip_module_dtor
	.addrsig_sym _Z22bonsai_tq2_gemv_kernelPKhPK6__halfPS1_ii
	.addrsig_sym .L__unnamed_2
	.addrsig_sym __hip_fatbin_wrapper
	.addrsig_sym __hip_cuid_aa3faf3571d05223
